target datalayout = "e-m:e-p270:32:32-p271:32:32-p272:64:64-i64:64-i128:128-f80:128-n8:16:32:64-S128"
target triple = "x86_64-pc-linux-gnu"

%struct.ResourceOwnerDesc = type { ptr, i32, i32, ptr, ptr }
%struct.buftag = type { i32, i32, i32, i32, i32 }
%struct.LWLock = type { i16, %struct.pg_atomic_uint32, %struct.proclist_head }
%struct.pg_atomic_uint32 = type { i32 }
%struct.proclist_head = type { i32, i32 }
%struct.BufferDesc = type { %struct.buftag, i32, %struct.pg_atomic_uint32, i32, i32, %struct.LWLock }

@buffer_pin_resowner_desc = dso_local constant %struct.ResourceOwnerDesc { ptr @.str.1, i32 1, i32 200, ptr @ResOwnerReleaseBufferPin, ptr @ResOwnerPrintBufferPin }, align 8
@CurrentResourceOwner = external global ptr, align 8

; Function Attrs: inlinehint nounwind uwtable
define internal i64 @Int32GetDatum(i32 noundef %0) #3 {
  %2 = alloca i32, align 4
  store i32 %0, ptr %2, align 4
  %3 = load i32, ptr %2, align 4
  %4 = sext i32 %3 to i64
  ret i64 %4
}

; Function Attrs: inlinehint nounwind uwtable
define internal void @ResourceOwnerForgetBuffer(ptr noundef %0, i32 noundef %1) #3 {
  %3 = alloca ptr, align 8
  %4 = alloca i32, align 4
  store ptr %0, ptr %3, align 8
  store i32 %1, ptr %4, align 4
  %5 = load ptr, ptr %3, align 8
  %6 = load i32, ptr %4, align 4
  %7 = call i64 @Int32GetDatum(i32 noundef %6)
  call void @ResourceOwnerForget(ptr noundef %5, i64 noundef %7, ptr noundef @buffer_pin_resowner_desc)
  ret void
}

; Function Attrs: inlinehint nounwind uwtable
define internal i32 @BufferDescriptorGetBuffer(ptr noundef %0) #3 {
  %2 = alloca ptr, align 8
  store ptr %0, ptr %2, align 8
  %3 = load ptr, ptr %2, align 8
  %4 = getelementptr inbounds nuw %struct.BufferDesc, ptr %3, i32 0, i32 1
  %5 = load i32, ptr %4, align 4
  %6 = add i32 %5, 1
  ret i32 %6
}

; Function Attrs: nounwind uwtable
define internal void @UnpinBuffer(ptr noundef %0) #0 {
  %2 = alloca ptr, align 8
  %3 = alloca i32, align 4
  store ptr %0, ptr %2, align 8
  call void @llvm.lifetime.start.p0(i64 4, ptr %3) #10
  %4 = load ptr, ptr %2, align 8
  %5 = call i32 @BufferDescriptorGetBuffer(ptr noundef %4)
  store i32 %5, ptr %3, align 4
  %6 = load ptr, ptr @CurrentResourceOwner, align 8
  %7 = load i32, ptr %3, align 4
  call void @ResourceOwnerForgetBuffer(ptr noundef %6, i32 noundef %7)
  %8 = load ptr, ptr %2, align 8
  call void @UnpinBufferNoOwner(ptr noundef %8)
  call void @llvm.lifetime.end.p0(i64 4, ptr %3) #10
  ret void
}