; Function Attrs: nounwind uwtable
define internal fastcc void @UnpinBuffer(ptr noundef %0) unnamed_addr #0 {
  %2 = getelementptr i8, ptr %0, i64 20
  %.val = load i32, ptr %2, align 4
  %3 = add i32 %.val, 1
  %4 = load ptr, ptr @CurrentResourceOwner, align 8
  %5 = sext i32 %3 to i64
  tail call void @ResourceOwnerForget(ptr noundef %4, i64 noundef %5, ptr noundef nonnull @buffer_pin_resowner_desc) #16
  tail call fastcc void @UnpinBufferNoOwner(ptr noundef %0)
  ret void
}